target datalayout = "e-m:e-p270:32:32-p271:32:32-p272:64:64-i64:64-i128:128-f80:128-n8:16:32:64-S128"
target triple = "x86_64-pc-linux-gnu"

%struct.rbimpl_size_mul_overflow_tag = type { i8, i64 }

@.str.20 = private unnamed_addr constant [8 x i8] c"confstr\00", align 1
@.str.230 = private unnamed_addr constant [56 x i8] c"required buffer size for confstr() changed dynamically.\00", align 1

; Function Attrs: inlinehint nounwind sspstrong willreturn memory(none) uwtable
define internal { i8, i64 } @rbimpl_size_mul_overflow(i64 noundef %0, i64 noundef %1) #5 {
  %3 = alloca %struct.rbimpl_size_mul_overflow_tag, align 8
  %4 = alloca i64, align 8
  %5 = alloca i64, align 8
  store i64 %0, ptr %4, align 8, !tbaa !6
  store i64 %1, ptr %5, align 8, !tbaa !6
  call void @llvm.memset.p0.i64(ptr align 8 %3, i8 0, i64 16, i1 false)
  %6 = load i64, ptr %4, align 8, !tbaa !6
  %7 = load i64, ptr %5, align 8, !tbaa !6
  %8 = getelementptr inbounds nuw %struct.rbimpl_size_mul_overflow_tag, ptr %3, i32 0, i32 1
  %9 = call { i64, i1 } @llvm.umul.with.overflow.i64(i64 %6, i64 %7)
  %10 = extractvalue { i64, i1 } %9, 1
  %11 = extractvalue { i64, i1 } %9, 0
  store i64 %11, ptr %8, align 8
  %12 = getelementptr inbounds nuw %struct.rbimpl_size_mul_overflow_tag, ptr %3, i32 0, i32 0
  %13 = zext i1 %10 to i8
  store i8 %13, ptr %12, align 8, !tbaa !56
  %14 = load { i8, i64 }, ptr %3, align 8
  ret { i8, i64 } %14
}

; Function Attrs: inlinehint nounwind sspstrong uwtable
define internal i64 @rbimpl_size_mul_or_raise(i64 noundef %0, i64 noundef %1) #3 {
  %3 = alloca i64, align 8
  %4 = alloca i64, align 8
  %5 = alloca %struct.rbimpl_size_mul_overflow_tag, align 8
  store i64 %0, ptr %3, align 8, !tbaa !6
  store i64 %1, ptr %4, align 8, !tbaa !6
  call void @llvm.lifetime.start.p0(i64 16, ptr %5) #19
  %6 = load i64, ptr %3, align 8, !tbaa !6
  %7 = load i64, ptr %4, align 8, !tbaa !6
  %8 = call { i8, i64 } @rbimpl_size_mul_overflow(i64 noundef %6, i64 noundef %7) #20
  %9 = getelementptr inbounds nuw { i8, i64 }, ptr %5, i32 0, i32 0
  %10 = extractvalue { i8, i64 } %8, 0
  store i8 %10, ptr %9, align 8
  %11 = getelementptr inbounds nuw { i8, i64 }, ptr %5, i32 0, i32 1
  %12 = extractvalue { i8, i64 } %8, 1
  store i64 %12, ptr %11, align 8
  %13 = getelementptr inbounds nuw %struct.rbimpl_size_mul_overflow_tag, ptr %5, i32 0, i32 0
  %14 = load i8, ptr %13, align 8, !tbaa !56, !range !27, !noundef !28
  %15 = trunc i8 %14 to i1
  %16 = xor i1 %15, true
  %17 = xor i1 %16, true
  %18 = xor i1 %17, true
  %19 = zext i1 %18 to i32
  %20 = sext i32 %19 to i64
  %21 = call i64 @llvm.expect.i64(i64 %20, i64 1)
  %22 = icmp ne i64 %21, 0
  br i1 %22, label %23, label %26

23:                                               ; preds = %2
  %24 = getelementptr inbounds nuw %struct.rbimpl_size_mul_overflow_tag, ptr %5, i32 0, i32 1
  %25 = load i64, ptr %24, align 8, !tbaa !58
  call void @llvm.lifetime.end.p0(i64 16, ptr %5) #19
  ret i64 %25

26:                                               ; preds = %2
  %27 = load i64, ptr %3, align 8, !tbaa !6
  %28 = load i64, ptr %4, align 8, !tbaa !6
  call void @ruby_malloc_size_overflow(i64 noundef %27, i64 noundef %28) #22
  unreachable
}

; Function Attrs: inlinehint nounwind sspstrong willreturn memory(none) uwtable
define internal zeroext i1 @RB_FIXNUM_P(i64 noundef %0) #5 {
  %2 = alloca i64, align 8
  store i64 %0, ptr %2, align 8, !tbaa !6
  %3 = load i64, ptr %2, align 8, !tbaa !6
  %4 = and i64 %3, 1
  %5 = icmp ne i64 %4, 0
  ret i1 %5
}

; Function Attrs: inlinehint nounwind sspstrong uwtable
define internal ptr @rb_alloc_tmp_buffer2(ptr noundef %0, i64 noundef %1, i64 noundef %2) #3 {
  %4 = alloca ptr, align 8
  %5 = alloca i64, align 8
  %6 = alloca i64, align 8
  %7 = alloca i64, align 8
  %8 = alloca i64, align 8
  store ptr %0, ptr %4, align 8, !tbaa !17
  store i64 %1, ptr %5, align 8, !tbaa !6
  store i64 %2, ptr %6, align 8, !tbaa !6
  call void @llvm.lifetime.start.p0(i64 8, ptr %7) #19
  %9 = load i64, ptr %5, align 8, !tbaa !6
  %10 = load i64, ptr %6, align 8, !tbaa !6
  %11 = call i64 @rbimpl_size_mul_or_raise(i64 noundef %9, i64 noundef %10)
  store i64 %11, ptr %7, align 8, !tbaa !6
  call void @llvm.lifetime.start.p0(i64 8, ptr %8) #19
  %12 = load i64, ptr %7, align 8, !tbaa !6
  %13 = add i64 %12, 8
  %14 = sub i64 %13, 1
  %15 = udiv i64 %14, 8
  store i64 %15, ptr %8, align 8, !tbaa !6
  %16 = load ptr, ptr %4, align 8, !tbaa !17
  %17 = load i64, ptr %7, align 8, !tbaa !6
  %18 = load i64, ptr %8, align 8, !tbaa !6
  %19 = call noalias nonnull ptr @rb_alloc_tmp_buffer_with_count(ptr noundef %16, i64 noundef %17, i64 noundef %18) #25
  call void @llvm.lifetime.end.p0(i64 8, ptr %8) #19
  call void @llvm.lifetime.end.p0(i64 8, ptr %7) #19
  ret ptr %19
}

; Function Attrs: inlinehint nounwind sspstrong uwtable
define internal i32 @rb_num2int_inline(i64 noundef %0) #3 {
  %2 = alloca i64, align 8
  %3 = alloca i64, align 8
  store i64 %0, ptr %2, align 8, !tbaa !6
  call void @llvm.lifetime.start.p0(i64 8, ptr %3) #19
  %4 = load i64, ptr %2, align 8, !tbaa !6
  %5 = call zeroext i1 @RB_FIXNUM_P(i64 noundef %4) #20
  br i1 %5, label %6, label %9

6:                                                ; preds = %1
  %7 = load i64, ptr %2, align 8, !tbaa !6
  %8 = call i64 @rb_fix2int(i64 noundef %7)
  store i64 %8, ptr %3, align 8, !tbaa !6
  br label %12

9:                                                ; preds = %1
  %10 = load i64, ptr %2, align 8, !tbaa !6
  %11 = call i64 @rb_num2int(i64 noundef %10)
  store i64 %11, ptr %3, align 8, !tbaa !6
  br label %12

12:                                               ; preds = %9, %6
  %13 = load i64, ptr %3, align 8, !tbaa !6
  %14 = trunc i64 %13 to i32
  call void @llvm.lifetime.end.p0(i64 8, ptr %3) #19
  ret i32 %14
}

; Function Attrs: nounwind sspstrong uwtable
define internal i64 @etc_confstr(i64 noundef %0, i64 noundef %1) #0 {
  %3 = alloca i64, align 8
  %4 = alloca i64, align 8
  %5 = alloca i64, align 8
  %6 = alloca i32, align 4
  %7 = alloca [128 x i8], align 16
  %8 = alloca ptr, align 8
  %9 = alloca i64, align 8
  %10 = alloca i64, align 8
  %11 = alloca i64, align 8
  %12 = alloca i32, align 4
  store i64 %0, ptr %4, align 8, !tbaa !6
  store i64 %1, ptr %5, align 8, !tbaa !6
  call void @llvm.lifetime.start.p0(i64 4, ptr %6) #19
  call void @llvm.lifetime.start.p0(i64 128, ptr %7) #19
  call void @llvm.lifetime.start.p0(i64 8, ptr %8) #19
  %13 = getelementptr inbounds [128 x i8], ptr %7, i64 0, i64 0
  store ptr %13, ptr %8, align 8, !tbaa !10
  call void @llvm.lifetime.start.p0(i64 8, ptr %9) #19
  store i64 128, ptr %9, align 8, !tbaa !6
  call void @llvm.lifetime.start.p0(i64 8, ptr %10) #19
  call void @llvm.lifetime.start.p0(i64 8, ptr %11) #19
  %14 = load i64, ptr %5, align 8, !tbaa !6
  %15 = call i32 @rb_num2int_inline(i64 noundef %14)
  store i32 %15, ptr %6, align 4, !tbaa !15
  %16 = call ptr @rb_errno_ptr()
  store i32 0, ptr %16, align 4, !tbaa !15
  %17 = load i32, ptr %6, align 4, !tbaa !15
  %18 = load ptr, ptr %8, align 8, !tbaa !10
  %19 = load i64, ptr %9, align 8, !tbaa !6
  %20 = call i64 @confstr(i32 noundef %17, ptr noundef %18, i64 noundef %19) #19
  store i64 %20, ptr %10, align 8, !tbaa !6
  %21 = load i64, ptr %9, align 8, !tbaa !6
  %22 = load i64, ptr %10, align 8, !tbaa !6
  %23 = icmp ult i64 %21, %22
  br i1 %23, label %24, label %42

24:                                               ; preds = %2
  %25 = load i64, ptr %10, align 8, !tbaa !6
  store i64 %25, ptr %9, align 8, !tbaa !6
  %26 = load i64, ptr %9, align 8, !tbaa !6
  %27 = icmp ult i64 %26, 1024
  br i1 %27, label %28, label %32

28:                                               ; preds = %24
  store i64 0, ptr %11, align 8, !tbaa !6
  %29 = load i64, ptr %9, align 8, !tbaa !6
  %30 = mul i64 %29, 1
  %31 = alloca i8, i64 %30, align 16
  br label %35

32:                                               ; preds = %24
  %33 = load i64, ptr %9, align 8, !tbaa !6
  %34 = call ptr @rb_alloc_tmp_buffer2(ptr noundef %11, i64 noundef %33, i64 noundef 1)
  br label %35

35:                                               ; preds = %32, %28
  %36 = phi ptr [ %31, %28 ], [ %34, %32 ]
  store ptr %36, ptr %8, align 8, !tbaa !10
  %37 = call ptr @rb_errno_ptr()
  store i32 0, ptr %37, align 4, !tbaa !15
  %38 = load i32, ptr %6, align 4, !tbaa !15
  %39 = load ptr, ptr %8, align 8, !tbaa !10
  %40 = load i64, ptr %9, align 8, !tbaa !6
  %41 = call i64 @confstr(i32 noundef %38, ptr noundef %39, i64 noundef %40) #19
  store i64 %41, ptr %10, align 8, !tbaa !6
  br label %42

42:                                               ; preds = %35, %2
  %43 = load i64, ptr %9, align 8, !tbaa !6
  %44 = load i64, ptr %10, align 8, !tbaa !6
  %45 = icmp ult i64 %43, %44
  br i1 %45, label %46, label %47

46:                                               ; preds = %42
  call void (ptr, ...) @rb_bug(ptr noundef @.str.230) #23
  unreachable

47:                                               ; preds = %42
  %48 = load i64, ptr %10, align 8, !tbaa !6
  %49 = icmp eq i64 %48, 0
  br i1 %49, label %50, label %56

50:                                               ; preds = %47
  %51 = call ptr @rb_errno_ptr()
  %52 = load i32, ptr %51, align 4, !tbaa !15
  %53 = icmp eq i32 %52, 0
  br i1 %53, label %54, label %55

54:                                               ; preds = %50
  store i64 4, ptr %3, align 8
  store i32 1, ptr %12, align 4
  br label %59

55:                                               ; preds = %50
  call void @rb_sys_fail(ptr noundef @.str.20) #22
  unreachable

56:                                               ; preds = %47
  %57 = load ptr, ptr %8, align 8, !tbaa !10
  %58 = call i64 @rb_str_new_cstr(ptr noundef %57)
  store i64 %58, ptr %3, align 8
  store i32 1, ptr %12, align 4
  br label %59

59:                                               ; preds = %56, %54
  call void @llvm.lifetime.end.p0(i64 8, ptr %11) #19
  call void @llvm.lifetime.end.p0(i64 8, ptr %10) #19
  call void @llvm.lifetime.end.p0(i64 8, ptr %9) #19
  call void @llvm.lifetime.end.p0(i64 8, ptr %8) #19
  call void @llvm.lifetime.end.p0(i64 128, ptr %7) #19
  call void @llvm.lifetime.end.p0(i64 4, ptr %6) #19
  %60 = load i64, ptr %3, align 8
  ret i64 %60
}