; Function Attrs: nounwind sspstrong uwtable
define internal i64 @etc_confstr(i64 %0, i64 noundef %1) #0 {
  %3 = alloca [128 x i8], align 16
  %4 = alloca i64, align 8
  call void @llvm.lifetime.start.p0(i64 128, ptr nonnull %3) #13
  call void @llvm.lifetime.start.p0(i64 8, ptr nonnull %4) #13
  %5 = and i64 %1, 1
  %.not.i = icmp eq i64 %5, 0
  br i1 %.not.i, label %8, label %6

6:                                                ; preds = %2
  %7 = tail call i64 @rb_fix2int(i64 noundef %1) #13
  br label %rb_num2int_inline.exit

8:                                                ; preds = %2
  %9 = tail call i64 @rb_num2int(i64 noundef %1) #13
  br label %rb_num2int_inline.exit

rb_num2int_inline.exit:                           ; preds = %6, %8
  %.0.i = phi i64 [ %7, %6 ], [ %9, %8 ]
  %10 = trunc i64 %.0.i to i32
  %11 = tail call ptr @rb_errno_ptr() #13
  store i32 0, ptr %11, align 4, !tbaa !21
  %12 = call i64 @confstr(i32 noundef %10, ptr noundef nonnull %3, i64 noundef 128) #13
  %13 = icmp ugt i64 %12, 128
  br i1 %13, label %14, label %26

14:                                               ; preds = %rb_num2int_inline.exit
  %15 = icmp ult i64 %12, 1024
  br i1 %15, label %16, label %18

16:                                               ; preds = %14
  store i64 0, ptr %4, align 8, !tbaa !6
  %17 = alloca i8, i64 %12, align 16
  br label %22

18:                                               ; preds = %14
  %19 = add i64 %12, 7
  %20 = lshr i64 %19, 3
  %21 = call noalias nonnull ptr @rb_alloc_tmp_buffer_with_count(ptr noundef nonnull %4, i64 noundef range(i64 1024, 0) %12, i64 noundef %20) #16
  br label %22

22:                                               ; preds = %18, %16
  %23 = phi ptr [ %17, %16 ], [ %21, %18 ]
  %24 = call ptr @rb_errno_ptr() #13
  store i32 0, ptr %24, align 4, !tbaa !21
  %25 = call i64 @confstr(i32 noundef %10, ptr noundef nonnull %23, i64 noundef %12) #13
  br label %26

26:                                               ; preds = %22, %rb_num2int_inline.exit
  %.018 = phi ptr [ %23, %22 ], [ %3, %rb_num2int_inline.exit ]
  %.017 = phi i64 [ %12, %22 ], [ 128, %rb_num2int_inline.exit ]
  %.0 = phi i64 [ %25, %22 ], [ %12, %rb_num2int_inline.exit ]
  %27 = icmp ult i64 %.017, %.0
  br i1 %27, label %28, label %29

28:                                               ; preds = %26
  call void (ptr, ...) @rb_bug(ptr noundef nonnull @.str.230) #17
  unreachable

29:                                               ; preds = %26
  %30 = icmp eq i64 %.0, 0
  br i1 %30, label %31, label %36

31:                                               ; preds = %29
  %32 = call ptr @rb_errno_ptr() #13
  %33 = load i32, ptr %32, align 4, !tbaa !21
  %34 = icmp eq i32 %33, 0
  br i1 %34, label %38, label %35

35:                                               ; preds = %31
  call void @rb_sys_fail(ptr noundef nonnull @.str.20) #15
  unreachable

36:                                               ; preds = %29
  %37 = call i64 @rb_str_new_cstr(ptr noundef nonnull %.018) #13
  br label %38

38:                                               ; preds = %31, %36
  %.019 = phi i64 [ %37, %36 ], [ 4, %31 ]
  call void @llvm.lifetime.end.p0(i64 8, ptr nonnull %4) #13
  call void @llvm.lifetime.end.p0(i64 128, ptr nonnull %3) #13
  ret i64 %.019
}